target datalayout = "e-m:e-p270:32:32-p271:32:32-p272:64:64-i64:64-i128:128-f80:128-n8:16:32:64-S128"
target triple = "x86_64-pc-linux-gnu"

%struct.hwloc_topology = type { i32, i32, i32, ptr, ptr, i64, [20 x i32], [20 x i32], i64, i64, i32, ptr, i64, ptr, i64, [6 x %struct.hwloc_special_level_s], ptr, ptr, %struct.hwloc_binding_hooks, %struct.hwloc_topology_support, %struct.hwloc_infos_s, ptr, ptr, i32, ptr, ptr, i32, i32, ptr, i32, i32, ptr, i32, i32, i32, [5 x float], i32, ptr, ptr, i32, i32, ptr, i32, %struct.hwloc_numanode_attr_s, i32, i32, ptr, i64, i32, ptr, ptr, ptr }
%struct.hwloc_special_level_s = type { i32, ptr, ptr, ptr }
%struct.hwloc_binding_hooks = type { ptr, ptr, ptr, ptr, ptr, ptr, ptr, ptr, ptr, ptr, ptr, ptr, ptr, ptr, ptr, ptr, ptr, ptr, ptr, ptr, ptr, ptr, ptr, ptr }
%struct.hwloc_topology_support = type { ptr, ptr, ptr, ptr }
%struct.hwloc_infos_s = type { ptr, i32, i32 }
%struct.hwloc_numanode_attr_s = type { i64, i32, ptr }
%struct.hwloc_internal_memattr_s = type { ptr, i64, i32, i32, ptr }
%struct.hwloc_internal_memattr_target_s = type { ptr, i32, i32, i64, i64, i32, ptr }
%struct.hwloc_internal_memattr_initiator_s = type { %struct.hwloc_internal_location_s, i64 }
%struct.hwloc_internal_location_s = type { i32, %union.anon }
%union.anon = type { %struct.anon }
%struct.anon = type { ptr, i64, i32 }

; Function Attrs: nounwind uwtable
define internal i32 @hwloc__internal_memattr_set_value(ptr noundef %0, i32 noundef %1, i32 noundef %2, i64 noundef %3, i32 noundef %4, ptr noundef %5, i64 noundef %6) #0 {
  %8 = alloca i32, align 4
  %9 = alloca ptr, align 8
  %10 = alloca i32, align 4
  %11 = alloca i32, align 4
  %12 = alloca i64, align 8
  %13 = alloca i32, align 4
  %14 = alloca ptr, align 8
  %15 = alloca i64, align 8
  %16 = alloca ptr, align 8
  %17 = alloca ptr, align 8
  %18 = alloca i32, align 4
  %19 = alloca ptr, align 8
  store ptr %0, ptr %9, align 8, !tbaa !3
  store i32 %1, ptr %10, align 4, !tbaa !45
  store i32 %2, ptr %11, align 4, !tbaa !45
  store i64 %3, ptr %12, align 8, !tbaa !37
  store i32 %4, ptr %13, align 4, !tbaa !45
  store ptr %5, ptr %14, align 8, !tbaa !99
  store i64 %6, ptr %15, align 8, !tbaa !37
  call void @llvm.lifetime.start.p0(i64 8, ptr %16) #14
  call void @llvm.lifetime.start.p0(i64 8, ptr %17) #14
  %20 = load i32, ptr %10, align 4, !tbaa !45
  %21 = load ptr, ptr %9, align 8, !tbaa !3
  %22 = getelementptr inbounds nuw %struct.hwloc_topology, ptr %21, i32 0, i32 27
  %23 = load i32, ptr %22, align 4, !tbaa !8
  %24 = icmp uge i32 %20, %23
  br i1 %24, label %25, label %27

25:                                               ; preds = %7
  %26 = call ptr @__errno_location() #16
  store i32 22, ptr %26, align 4, !tbaa !45
  store i32 -1, ptr %8, align 4
  store i32 1, ptr %18, align 4
  br label %102

27:                                               ; preds = %7
  %28 = load ptr, ptr %9, align 8, !tbaa !3
  %29 = getelementptr inbounds nuw %struct.hwloc_topology, ptr %28, i32 0, i32 28
  %30 = load ptr, ptr %29, align 8, !tbaa !33
  %31 = load i32, ptr %10, align 4, !tbaa !45
  %32 = zext i32 %31 to i64
  %33 = getelementptr inbounds nuw %struct.hwloc_internal_memattr_s, ptr %30, i64 %32
  store ptr %33, ptr %16, align 8, !tbaa !34
  %34 = load ptr, ptr %16, align 8, !tbaa !34
  %35 = getelementptr inbounds nuw %struct.hwloc_internal_memattr_s, ptr %34, i32 0, i32 1
  %36 = load i64, ptr %35, align 8, !tbaa !41
  %37 = and i64 %36, 4
  %38 = icmp ne i64 %37, 0
  br i1 %38, label %39, label %45

39:                                               ; preds = %27
  %40 = load ptr, ptr %14, align 8, !tbaa !99
  %41 = icmp ne ptr %40, null
  br i1 %41, label %44, label %42

42:                                               ; preds = %39
  %43 = call ptr @__errno_location() #16
  store i32 22, ptr %43, align 4, !tbaa !45
  store i32 -1, ptr %8, align 4
  store i32 1, ptr %18, align 4
  br label %102

44:                                               ; preds = %39
  br label %45

45:                                               ; preds = %44, %27
  %46 = load ptr, ptr %16, align 8, !tbaa !34
  %47 = getelementptr inbounds nuw %struct.hwloc_internal_memattr_s, ptr %46, i32 0, i32 2
  %48 = load i32, ptr %47, align 8, !tbaa !42
  %49 = and i32 %48, 4
  %50 = icmp ne i32 %49, 0
  br i1 %50, label %51, label %53

51:                                               ; preds = %45
  %52 = call ptr @__errno_location() #16
  store i32 22, ptr %52, align 4, !tbaa !45
  store i32 -1, ptr %8, align 4
  store i32 1, ptr %18, align 4
  br label %102

53:                                               ; preds = %45
  %54 = load ptr, ptr %9, align 8, !tbaa !3
  %55 = getelementptr inbounds nuw %struct.hwloc_topology, ptr %54, i32 0, i32 8
  %56 = load i64, ptr %55, align 8, !tbaa !104
  %57 = and i64 %56, 2
  %58 = icmp ne i64 %57, 0
  br i1 %58, label %59, label %68

59:                                               ; preds = %53
  %60 = load ptr, ptr %16, align 8, !tbaa !34
  %61 = getelementptr inbounds nuw %struct.hwloc_internal_memattr_s, ptr %60, i32 0, i32 2
  %62 = load i32, ptr %61, align 8, !tbaa !42
  %63 = and i32 %62, 2
  %64 = icmp ne i32 %63, 0
  br i1 %64, label %68, label %65

65:                                               ; preds = %59
  %66 = load ptr, ptr %9, align 8, !tbaa !3
  %67 = load ptr, ptr %16, align 8, !tbaa !34
  call void @hwloc__imattr_refresh(ptr noundef %66, ptr noundef %67)
  br label %68

68:                                               ; preds = %65, %59, %53
  %69 = load ptr, ptr %16, align 8, !tbaa !34
  %70 = load i32, ptr %11, align 4, !tbaa !45
  %71 = load i64, ptr %12, align 8, !tbaa !37
  %72 = load i32, ptr %13, align 4, !tbaa !45
  %73 = call ptr @hwloc__memattr_get_target(ptr noundef %69, i32 noundef %70, i64 noundef %71, i32 noundef %72, i32 noundef 1)
  store ptr %73, ptr %17, align 8, !tbaa !49
  %74 = load ptr, ptr %17, align 8, !tbaa !49
  %75 = icmp ne ptr %74, null
  br i1 %75, label %77, label %76

76:                                               ; preds = %68
  store i32 -1, ptr %8, align 4
  store i32 1, ptr %18, align 4
  br label %102

77:                                               ; preds = %68
  %78 = load ptr, ptr %16, align 8, !tbaa !34
  %79 = getelementptr inbounds nuw %struct.hwloc_internal_memattr_s, ptr %78, i32 0, i32 1
  %80 = load i64, ptr %79, align 8, !tbaa !41
  %81 = and i64 %80, 4
  %82 = icmp ne i64 %81, 0
  br i1 %82, label %83, label %97

83:                                               ; preds = %77
  call void @llvm.lifetime.start.p0(i64 8, ptr %19) #14
  %84 = load ptr, ptr %17, align 8, !tbaa !49
  %85 = load ptr, ptr %14, align 8, !tbaa !99
  %86 = call ptr @hwloc__memattr_target_get_initiator(ptr noundef %84, ptr noundef %85, i32 noundef 1)
  store ptr %86, ptr %19, align 8, !tbaa !59
  %87 = load ptr, ptr %19, align 8, !tbaa !59
  %88 = icmp ne ptr %87, null
  br i1 %88, label %90, label %89

89:                                               ; preds = %83
  store i32 -1, ptr %8, align 4
  store i32 1, ptr %18, align 4
  br label %94

90:                                               ; preds = %83
  %91 = load i64, ptr %15, align 8, !tbaa !37
  %92 = load ptr, ptr %19, align 8, !tbaa !59
  %93 = getelementptr inbounds nuw %struct.hwloc_internal_memattr_initiator_s, ptr %92, i32 0, i32 1
  store i64 %91, ptr %93, align 8, !tbaa !84
  store i32 0, ptr %18, align 4
  br label %94

94:                                               ; preds = %90, %89
  call void @llvm.lifetime.end.p0(i64 8, ptr %19) #14
  %95 = load i32, ptr %18, align 4
  switch i32 %95, label %102 [
    i32 0, label %96
  ]

96:                                               ; preds = %94
  br label %101

97:                                               ; preds = %77
  %98 = load i64, ptr %15, align 8, !tbaa !37
  %99 = load ptr, ptr %17, align 8, !tbaa !49
  %100 = getelementptr inbounds nuw %struct.hwloc_internal_memattr_target_s, ptr %99, i32 0, i32 4
  store i64 %98, ptr %100, align 8, !tbaa !85
  br label %101

101:                                              ; preds = %97, %96
  store i32 0, ptr %8, align 4
  store i32 1, ptr %18, align 4
  br label %102

102:                                              ; preds = %101, %94, %76, %51, %42, %25
  call void @llvm.lifetime.end.p0(i64 8, ptr %17) #14
  call void @llvm.lifetime.end.p0(i64 8, ptr %16) #14
  %103 = load i32, ptr %8, align 4
  ret i32 %103
}