; Function Attrs: nounwind uwtable
define internal fastcc range(i32 -1, 1) i32 @hwloc__internal_memattr_set_value(ptr noundef %0, i32 noundef %1, i32 noundef %2, i64 noundef %3, i32 noundef %4, ptr noundef readonly captures(address_is_null) %5, i64 noundef %6) unnamed_addr #3 {
  %8 = getelementptr inbounds nuw i8, ptr %0, i64 748
  %9 = load i32, ptr %8, align 4, !tbaa !3
  %.not = icmp ult i32 %1, %9
  br i1 %.not, label %12, label %10

10:                                               ; preds = %7
  %11 = tail call ptr @__errno_location() #31
  store i32 22, ptr %11, align 4, !tbaa !60
  br label %.critedge

12:                                               ; preds = %7
  %13 = getelementptr inbounds nuw i8, ptr %0, i64 752
  %14 = load ptr, ptr %13, align 8, !tbaa !31
  %15 = zext i32 %1 to i64
  %16 = getelementptr inbounds nuw %struct.hwloc_internal_memattr_s, ptr %14, i64 %15
  %17 = getelementptr inbounds nuw i8, ptr %16, i64 8
  %18 = load i64, ptr %17, align 8, !tbaa !36
  %19 = and i64 %18, 4
  %20 = icmp eq i64 %19, 0
  %21 = icmp ne ptr %5, null
  %or.cond = or i1 %21, %20
  br i1 %or.cond, label %24, label %22

22:                                               ; preds = %12
  %23 = tail call ptr @__errno_location() #31
  store i32 22, ptr %23, align 4, !tbaa !60
  br label %.critedge

24:                                               ; preds = %12
  %25 = getelementptr inbounds nuw i8, ptr %16, i64 16
  %26 = load i32, ptr %25, align 8, !tbaa !37
  %27 = and i32 %26, 4
  %.not30 = icmp eq i32 %27, 0
  br i1 %.not30, label %30, label %28

28:                                               ; preds = %24
  %29 = tail call ptr @__errno_location() #31
  store i32 22, ptr %29, align 4, !tbaa !60
  br label %.critedge

30:                                               ; preds = %24
  %31 = getelementptr inbounds nuw i8, ptr %0, i64 200
  %32 = load i64, ptr %31, align 8, !tbaa !96
  %33 = and i64 %32, 2
  %.not31 = icmp ne i64 %33, 0
  %34 = and i32 %26, 2
  %.not32 = icmp eq i32 %34, 0
  %or.cond36 = and i1 %.not32, %.not31
  br i1 %or.cond36, label %35, label %36

35:                                               ; preds = %30
  tail call fastcc void @hwloc__imattr_refresh(ptr noundef nonnull %0, ptr noundef nonnull %16)
  br label %36

36:                                               ; preds = %35, %30
  %37 = tail call fastcc ptr @hwloc__memattr_get_target(ptr noundef nonnull %16, i32 noundef %2, i64 noundef %3, i32 noundef %4, i32 noundef 1)
  %.not33 = icmp eq ptr %37, null
  br i1 %.not33, label %.critedge, label %38

38:                                               ; preds = %36
  %39 = load i64, ptr %17, align 8, !tbaa !36
  %40 = and i64 %39, 4
  %.not34 = icmp eq i64 %40, 0
  br i1 %.not34, label %45, label %41

41:                                               ; preds = %38
  %42 = tail call fastcc ptr @hwloc__memattr_target_get_initiator(ptr noundef nonnull %37, ptr noundef %5, i32 noundef 1)
  %.not35.not = icmp eq ptr %42, null
  br i1 %.not35.not, label %.critedge, label %43

43:                                               ; preds = %41
  %44 = getelementptr inbounds nuw i8, ptr %42, i64 32
  store i64 %6, ptr %44, align 8, !tbaa !95
  br label %.critedge

45:                                               ; preds = %38
  %46 = getelementptr inbounds nuw i8, ptr %37, i64 24
  store i64 %6, ptr %46, align 8, !tbaa !87
  br label %.critedge

.critedge:                                        ; preds = %45, %43, %41, %36, %28, %22, %10
  %.0 = phi i32 [ -1, %10 ], [ -1, %28 ], [ -1, %22 ], [ -1, %36 ], [ -1, %41 ], [ 0, %43 ], [ 0, %45 ]
  ret i32 %.0
}